Certificate:
    Data:
        Version: 3 (0x2)
        Serial Number: 1 (0x1)
    Signature Algorithm: sha256WithRSAEncryption
        Issuer: CN=devcert
        Validity
            Not Before: Apr 24 01:29:02 2020 GMT
            Not After : Jul 28 01:29:02 2022 GMT
        Subject: CN=localhost
        Subject Public Key Info:
            Public Key Algorithm: rsaEncryption
                Public-Key: (2048 bit)
                Modulus:
                    00:e6:b9:ec:b4:46:a9:66:73:b4:d8:78:f1:aa:43:
                    c5:15:2f:ad:36:3c:71:fc:16:7d:b6:a6:32:f3:ff:
                    86:4e:c7:c7:a1:8b:f0:f3:ab:4b:aa:e5:b5:f4:48:
                    89:d8:6f:9f:92:da:f9:28:b9:aa:c9:67:ff:2a:14:
                    91:85:64:e9:1f:ab:ea:84:97:6c:ec:e8:48:60:30:
                    7b:5b:96:04:58:bd:53:4a:c0:07:d6:75:b4:29:ae:
                    fb:15:dd:91:ff:a4:b6:08:0c:4b:5d:c7:10:d5:92:
                    c8:bf:4b:8e:fd:6c:d0:e9:f9:28:4e:63:8c:65:16:
                    f3:77:9d:ab:fc:92:dd:bb:25:1a:77:5f:8a:b0:e1:
                    f6:56:b3:f8:4e:a3:37:48:26:14:e6:f6:4c:93:02:
                    1f:35:8e:64:1f:75:19:de:19:89:41:e3:c4:e5:b2:
                    49:b0:ff:9c:35:96:f0:f0:24:93:e0:a1:2e:0d:15:
                    21:10:27:18:96:67:c6:fb:7d:cd:6e:95:37:51:09:
                    8e:bf:4d:72:ef:a3:a8:b5:ac:9d:30:56:b3:15:22:
                    72:75:44:69:1f:18:06:4d:ef:b5:fd:45:0e:af:79:
                    e2:e0:12:42:9d:da:07:10:be:35:10:38:a9:67:55:
                    2d:50:90:7c:80:d3:69:13:d8:0e:38:ce:c3:2b:89:
                    15:83
                Exponent: 65537 (0x10001)
        X509v3 extensions:
            X509v3 Basic Constraints: critical
                CA:FALSE
            X509v3 Subject Key Identifier: 
                68:59:FB:4E:7E:A6:CE:7B:D9:2B:B1:97:40:AA:9B:A6:B5:30:4E:FE
            X509v3 Authority Key Identifier: 
                keyid:97:A6:23:9E:04:03:7B:C8:02:B4:21:1B:B5:C4:A0:D8:2F:00:78:89
                DirName:/CN=devcert
                serial:D4:4F:6B:1D:FE:16:17:06

            X509v3 Key Usage: critical
                Digital Signature, Key Encipherment
            X509v3 Extended Key Usage: 
                TLS Web Server Authentication
            X509v3 Subject Alternative Name: 
                DNS:localhost, DNS:*.localhost
    Signature Algorithm: sha256WithRSAEncryption
         38:95:07:ec:d7:23:05:62:6d:ac:ad:89:04:c4:38:b5:41:e4:
         88:35:33:08:2d:d0:1a:e7:98:c1:7e:72:65:70:f0:fa:06:b3:
         f9:45:67:75:2a:89:90:ca:93:d3:f7:9c:34:41:c9:36:1f:a7:
         5b:bb:3b:fd:0b:ec:b8:6f:c9:6e:c1:39:fd:60:c6:a1:f9:b4:
         65:da:ad:11:84:7c:f9:51:58:30:49:9e:0f:2f:cf:ee:e5:69:
         41:92:7c:9a:4e:2f:2d:f1:20:50:10:17:4a:aa:e7:b3:06:f5:
         b4:89:ce:bc:ce:ed:76:2b:96:56:09:3b:ab:90:b9:ac:52:96:
         75:21:e5:51:1c:cb:da:b1:35:f6:ac:be:9d:80:b8:8b:cc:23:
         fc:c6:63:16:66:2b:ed:9c:8a:83:48:15:9e:b9:71:39:81:5c:
         a3:77:59:36:e7:75:3a:1c:a3:3c:c3:38:7c:cd:53:08:06:16:
         bc:f6:e3:b0:8a:94:a5:65:84:14:6a:48:f0:77:6c:6b:de:b1:
         0b:87:ca:09:2b:cc:8d:83:77:f3:0a:6f:2b:e2:92:08:d6:7a:
         d5:6a:fa:7a:d5:71:4a:b9:34:aa:a3:80:4f:e9:5e:d7:93:2c:
         d1:fb:79:d7:be:1f:da:39:33:b8:67:a8:24:0b:8f:f8:47:52:
         3e:0f:4a:e3
-----BEGIN CERTIFICATE-----
MIIDXjCCAkagAwIBAgIBATANBgkqhkiG9w0BAQsFADASMRAwDgYDVQQDDAdkZXZj
ZXJ0MB4XDTIwMDQyNDAxMjkwMloXDTIyMDcyODAxMjkwMlowFDESMBAGA1UEAwwJ
bG9jYWxob3N0MIIBIjANBgkqhkiG9w0BAQEFAAOCAQ8AMIIBCgKCAQEA5rnstEap
ZnO02HjxqkPFFS+tNjxx/BZ9tqYy8/+GTsfHoYvw86tLquW19EiJ2G+fktr5KLmq
yWf/KhSRhWTpH6vqhJds7OhIYDB7W5YEWL1TSsAH1nW0Ka77Fd2R/6S2CAxLXccQ
1ZLIv0uO/WzQ6fkoTmOMZRbzd52r/JLduyUad1+KsOH2VrP4TqM3SCYU5vZMkwIf
NY5kH3UZ3hmJQePE5bJJsP+cNZbw8CST4KEuDRUhECcYlmfG+33NbpU3UQmOv01y
76OotaydMFazFSJydURpHxgGTe+1/UUOr3ni4BJCndoHEL41EDipZ1UtUJB8gNNp
E9gOOM7DK4kVgwIDAQABo4G8MIG5MAwGA1UdEwEB/wQCMAAwHQYDVR0OBBYEFGhZ
+05+ps572Suxl0Cqm6a1ME7+MEIGA1UdIwQ7MDmAFJemI54EA3vIArQhG7XEoNgv
AHiJoRakFDASMRAwDgYDVQQDDAdkZXZjZXJ0ggkA1E9rHf4WFwYwDgYDVR0PAQH/
BAQDAgWgMBMGA1UdJQQMMAoGCCsGAQUFBwMBMCEGA1UdEQQaMBiCCWxvY2FsaG9z
dIILKi5sb2NhbGhvc3QwDQYJKoZIhvcNAQELBQADggEBADiVB+zXIwVibaytiQTE
OLVB5Ig1Mwgt0BrnmMF+cmVw8PoGs/lFZ3UqiZDKk9P3nDRByTYfp1u7O/0L7Lhv
yW7BOf1gxqH5tGXarRGEfPlRWDBJng8vz+7laUGSfJpOLy3xIFAQF0qq57MG9bSJ
zrzO7XYrllYJO6uQuaxSlnUh5VEcy9qxNfasvp2AuIvMI/zGYxZmK+2cioNIFZ65
cTmBXKN3WTbndTocozzDOHzNUwgGFrz247CKlKVlhBRqSPB3bGvesQuHygkrzI2D
d/MKbyvikgjWetVq+nrVcUq5NKqjgE/pXteTLNH7ede+H9o5M7hnqCQLj/hHUj4P
SuM=
-----END CERTIFICATE-----
